; Function Attrs: cold mustprogress nofree nounwind uwtable
define internal fastcc void @_ZN12_GLOBAL__N_111DumpVisitorclINS_16itanium_demangle15UnnamedTypeNameEEEvPKT_(ptr noundef nonnull align 4 captures(none) dereferenceable(5) %0, ptr noundef readonly captures(none) %1) unnamed_addr #21 align 2 {
  %3 = load i32, ptr %0, align 4, !tbaa !4
  %4 = add i32 %3, 2
  store i32 %4, ptr %0, align 4, !tbaa !4
  %5 = load ptr, ptr @stderr, align 8, !tbaa !11
  %6 = tail call i32 (ptr, ptr, ...) @fprintf(ptr noundef %5, ptr noundef nonnull @.str.8, ptr noundef nonnull @.str.90) #36
  %7 = getelementptr i8, ptr %1, i64 16
  %.val = load ptr, ptr %7, align 8, !tbaa !219
  %8 = getelementptr i8, ptr %1, i64 24
  %.val2 = load i64, ptr %8, align 8, !tbaa !220
  %9 = load ptr, ptr @stderr, align 8, !tbaa !11
  %10 = trunc i64 %.val2 to i32
  %11 = tail call i32 (ptr, ptr, ...) @fprintf(ptr noundef %9, ptr noundef nonnull @.str.17, i32 noundef %10, ptr noundef %.val) #36
  %12 = load ptr, ptr @stderr, align 8, !tbaa !11
  %fputc = tail call i32 @fputc(i32 41, ptr %12)
  %13 = load i32, ptr %0, align 4, !tbaa !4
  %14 = add i32 %13, -2
  store i32 %14, ptr %0, align 4, !tbaa !4
  ret void
}